target datalayout = "e-m:e-p270:32:32-p271:32:32-p272:64:64-i64:64-f80:128-n8:16:32:64-S128"
target triple = "x86_64-pc-linux-gnu"

%struct.student = type { [25 x i8], i32, i32, [2 x i8], [2 x i8], i32, i32 }

@stu = dso_local global [102 x %struct.student] zeroinitializer, align 16
@.str = private unnamed_addr constant [3 x i8] c"%d\00", align 1
@.str.1 = private unnamed_addr constant [13 x i8] c"%s%d%d%s%s%d\00", align 1
@temp = common dso_local global %struct.student zeroinitializer, align 4
@.str.2 = private unnamed_addr constant [10 x i8] c"%s\0A%d\0A%d\0A\00", align 1

; Function Attrs: noinline nounwind uwtable
define dso_local void @main() #0 {
  %1 = alloca i32, align 4
  %2 = alloca i32, align 4
  %3 = alloca i32, align 4
  %4 = alloca i32, align 4
  store i32 0, i32* %4, align 4
  %5 = call i32 (i8*, ...) @__isoc99_scanf(i8* getelementptr inbounds ([3 x i8], [3 x i8]* @.str, i64 0, i64 0), i32* %3)
  store i32 0, i32* %1, align 4
  br label %6

6:                                                ; preds = %158, %0
  %7 = load i32, i32* %1, align 4
  %8 = load i32, i32* %3, align 4
  %9 = icmp slt i32 %7, %8
  br i1 %9, label %10, label %161

10:                                               ; preds = %6
  %11 = load i32, i32* %1, align 4
  %12 = sext i32 %11 to i64
  %13 = getelementptr inbounds [102 x %struct.student], [102 x %struct.student]* @stu, i64 0, i64 %12
  %14 = getelementptr inbounds %struct.student, %struct.student* %13, i32 0, i32 0
  %15 = load i32, i32* %1, align 4
  %16 = sext i32 %15 to i64
  %17 = getelementptr inbounds [102 x %struct.student], [102 x %struct.student]* @stu, i64 0, i64 %16
  %18 = getelementptr inbounds %struct.student, %struct.student* %17, i32 0, i32 1
  %19 = load i32, i32* %1, align 4
  %20 = sext i32 %19 to i64
  %21 = getelementptr inbounds [102 x %struct.student], [102 x %struct.student]* @stu, i64 0, i64 %20
  %22 = getelementptr inbounds %struct.student, %struct.student* %21, i32 0, i32 2
  %23 = load i32, i32* %1, align 4
  %24 = sext i32 %23 to i64
  %25 = getelementptr inbounds [102 x %struct.student], [102 x %struct.student]* @stu, i64 0, i64 %24
  %26 = getelementptr inbounds %struct.student, %struct.student* %25, i32 0, i32 3
  %27 = load i32, i32* %1, align 4
  %28 = sext i32 %27 to i64
  %29 = getelementptr inbounds [102 x %struct.student], [102 x %struct.student]* @stu, i64 0, i64 %28
  %30 = getelementptr inbounds %struct.student, %struct.student* %29, i32 0, i32 4
  %31 = load i32, i32* %1, align 4
  %32 = sext i32 %31 to i64
  %33 = getelementptr inbounds [102 x %struct.student], [102 x %struct.student]* @stu, i64 0, i64 %32
  %34 = getelementptr inbounds %struct.student, %struct.student* %33, i32 0, i32 5
  %35 = call i32 (i8*, ...) @__isoc99_scanf(i8* getelementptr inbounds ([13 x i8], [13 x i8]* @.str.1, i64 0, i64 0), [25 x i8]* %14, i32* %18, i32* %22, [2 x i8]* %26, [2 x i8]* %30, i32* %34)
  %36 = load i32, i32* %1, align 4
  %37 = sext i32 %36 to i64
  %38 = getelementptr inbounds [102 x %struct.student], [102 x %struct.student]* @stu, i64 0, i64 %37
  %39 = getelementptr inbounds %struct.student, %struct.student* %38, i32 0, i32 1
  %40 = load i32, i32* %39, align 4
  %41 = icmp sgt i32 %40, 80
  br i1 %41, label %42, label %60

42:                                               ; preds = %10
  %43 = load i32, i32* %1, align 4
  %44 = sext i32 %43 to i64
  %45 = getelementptr inbounds [102 x %struct.student], [102 x %struct.student]* @stu, i64 0, i64 %44
  %46 = getelementptr inbounds %struct.student, %struct.student* %45, i32 0, i32 5
  %47 = load i32, i32* %46, align 8
  %48 = icmp sge i32 %47, 1
  br i1 %48, label %49, label %60

49:                                               ; preds = %42
  %50 = load i32, i32* %1, align 4
  %51 = sext i32 %50 to i64
  %52 = getelementptr inbounds [102 x %struct.student], [102 x %struct.student]* @stu, i64 0, i64 %51
  %53 = getelementptr inbounds %struct.student, %struct.student* %52, i32 0, i32 6
  %54 = load i32, i32* %53, align 4
  %55 = add nsw i32 %54, 8000
  %56 = load i32, i32* %1, align 4
  %57 = sext i32 %56 to i64
  %58 = getelementptr inbounds [102 x %struct.student], [102 x %struct.student]* @stu, i64 0, i64 %57
  %59 = getelementptr inbounds %struct.student, %struct.student* %58, i32 0, i32 6
  store i32 %55, i32* %59, align 4
  br label %60

60:                                               ; preds = %49, %42, %10
  %61 = load i32, i32* %1, align 4
  %62 = sext i32 %61 to i64
  %63 = getelementptr inbounds [102 x %struct.student], [102 x %struct.student]* @stu, i64 0, i64 %62
  %64 = getelementptr inbounds %struct.student, %struct.student* %63, i32 0, i32 1
  %65 = load i32, i32* %64, align 4
  %66 = icmp sgt i32 %65, 85
  br i1 %66, label %67, label %85

67:                                               ; preds = %60
  %68 = load i32, i32* %1, align 4
  %69 = sext i32 %68 to i64
  %70 = getelementptr inbounds [102 x %struct.student], [102 x %struct.student]* @stu, i64 0, i64 %69
  %71 = getelementptr inbounds %struct.student, %struct.student* %70, i32 0, i32 2
  %72 = load i32, i32* %71, align 16
  %73 = icmp sgt i32 %72, 80
  br i1 %73, label %74, label %85

74:                                               ; preds = %67
  %75 = load i32, i32* %1, align 4
  %76 = sext i32 %75 to i64
  %77 = getelementptr inbounds [102 x %struct.student], [102 x %struct.student]* @stu, i64 0, i64 %76
  %78 = getelementptr inbounds %struct.student, %struct.student* %77, i32 0, i32 6
  %79 = load i32, i32* %78, align 4
  %80 = add nsw i32 %79, 4000
  %81 = load i32, i32* %1, align 4
  %82 = sext i32 %81 to i64
  %83 = getelementptr inbounds [102 x %struct.student], [102 x %struct.student]* @stu, i64 0, i64 %82
  %84 = getelementptr inbounds %struct.student, %struct.student* %83, i32 0, i32 6
  store i32 %80, i32* %84, align 4
  br label %85

85:                                               ; preds = %74, %67, %60
  %86 = load i32, i32* %1, align 4
  %87 = sext i32 %86 to i64
  %88 = getelementptr inbounds [102 x %struct.student], [102 x %struct.student]* @stu, i64 0, i64 %87
  %89 = getelementptr inbounds %struct.student, %struct.student* %88, i32 0, i32 1
  %90 = load i32, i32* %89, align 4
  %91 = icmp sgt i32 %90, 90
  br i1 %91, label %92, label %103

92:                                               ; preds = %85
  %93 = load i32, i32* %1, align 4
  %94 = sext i32 %93 to i64
  %95 = getelementptr inbounds [102 x %struct.student], [102 x %struct.student]* @stu, i64 0, i64 %94
  %96 = getelementptr inbounds %struct.student, %struct.student* %95, i32 0, i32 6
  %97 = load i32, i32* %96, align 4
  %98 = add nsw i32 %97, 2000
  %99 = load i32, i32* %1, align 4
  %100 = sext i32 %99 to i64
  %101 = getelementptr inbounds [102 x %struct.student], [102 x %struct.student]* @stu, i64 0, i64 %100
  %102 = getelementptr inbounds %struct.student, %struct.student* %101, i32 0, i32 6
  store i32 %98, i32* %102, align 4
  br label %103

103:                                              ; preds = %92, %85
  %104 = load i32, i32* %1, align 4
  %105 = sext i32 %104 to i64
  %106 = getelementptr inbounds [102 x %struct.student], [102 x %struct.student]* @stu, i64 0, i64 %105
  %107 = getelementptr inbounds %struct.student, %struct.student* %106, i32 0, i32 1
  %108 = load i32, i32* %107, align 4
  %109 = icmp sgt i32 %108, 85
  br i1 %109, label %110, label %130

110:                                              ; preds = %103
  %111 = load i32, i32* %1, align 4
  %112 = sext i32 %111 to i64
  %113 = getelementptr inbounds [102 x %struct.student], [102 x %struct.student]* @stu, i64 0, i64 %112
  %114 = getelementptr inbounds %struct.student, %struct.student* %113, i32 0, i32 4
  %115 = getelementptr inbounds [2 x i8], [2 x i8]* %114, i64 0, i64 0
  %116 = load i8, i8* %115, align 2
  %117 = sext i8 %116 to i32
  %118 = icmp eq i32 %117, 89
  br i1 %118, label %119, label %130

119:                                              ; preds = %110
  %120 = load i32, i32* %1, align 4
  %121 = sext i32 %120 to i64
  %122 = getelementptr inbounds [102 x %struct.student], [102 x %struct.student]* @stu, i64 0, i64 %121
  %123 = getelementptr inbounds %struct.student, %struct.student* %122, i32 0, i32 6
  %124 = load i32, i32* %123, align 4
  %125 = add nsw i32 %124, 1000
  %126 = load i32, i32* %1, align 4
  %127 = sext i32 %126 to i64
  %128 = getelementptr inbounds [102 x %struct.student], [102 x %struct.student]* @stu, i64 0, i64 %127
  %129 = getelementptr inbounds %struct.student, %struct.student* %128, i32 0, i32 6
  store i32 %125, i32* %129, align 4
  br label %130

130:                                              ; preds = %119, %110, %103
  %131 = load i32, i32* %1, align 4
  %132 = sext i32 %131 to i64
  %133 = getelementptr inbounds [102 x %struct.student], [102 x %struct.student]* @stu, i64 0, i64 %132
  %134 = getelementptr inbounds %struct.student, %struct.student* %133, i32 0, i32 2
  %135 = load i32, i32* %134, align 16
  %136 = icmp sgt i32 %135, 80
  br i1 %136, label %137, label %157

137:                                              ; preds = %130
  %138 = load i32, i32* %1, align 4
  %139 = sext i32 %138 to i64
  %140 = getelementptr inbounds [102 x %struct.student], [102 x %struct.student]* @stu, i64 0, i64 %139
  %141 = getelementptr inbounds %struct.student, %struct.student* %140, i32 0, i32 3
  %142 = getelementptr inbounds [2 x i8], [2 x i8]* %141, i64 0, i64 0
  %143 = load i8, i8* %142, align 4
  %144 = sext i8 %143 to i32
  %145 = icmp eq i32 %144, 89
  br i1 %145, label %146, label %157

146:                                              ; preds = %137
  %147 = load i32, i32* %1, align 4
  %148 = sext i32 %147 to i64
  %149 = getelementptr inbounds [102 x %struct.student], [102 x %struct.student]* @stu, i64 0, i64 %148
  %150 = getelementptr inbounds %struct.student, %struct.student* %149, i32 0, i32 6
  %151 = load i32, i32* %150, align 4
  %152 = add nsw i32 %151, 850
  %153 = load i32, i32* %1, align 4
  %154 = sext i32 %153 to i64
  %155 = getelementptr inbounds [102 x %struct.student], [102 x %struct.student]* @stu, i64 0, i64 %154
  %156 = getelementptr inbounds %struct.student, %struct.student* %155, i32 0, i32 6
  store i32 %152, i32* %156, align 4
  br label %157

157:                                              ; preds = %146, %137, %130
  br label %158

158:                                              ; preds = %157
  %159 = load i32, i32* %1, align 4
  %160 = add nsw i32 %159, 1
  store i32 %160, i32* %1, align 4
  br label %6

161:                                              ; preds = %6
  store i32 0, i32* %1, align 4
  br label %162

162:                                              ; preds = %174, %161
  %163 = load i32, i32* %1, align 4
  %164 = load i32, i32* %3, align 4
  %165 = icmp slt i32 %163, %164
  br i1 %165, label %166, label %177

166:                                              ; preds = %162
  %167 = load i32, i32* %4, align 4
  %168 = load i32, i32* %1, align 4
  %169 = sext i32 %168 to i64
  %170 = getelementptr inbounds [102 x %struct.student], [102 x %struct.student]* @stu, i64 0, i64 %169
  %171 = getelementptr inbounds %struct.student, %struct.student* %170, i32 0, i32 6
  %172 = load i32, i32* %171, align 4
  %173 = add nsw i32 %167, %172
  store i32 %173, i32* %4, align 4
  br label %174

174:                                              ; preds = %166
  %175 = load i32, i32* %1, align 4
  %176 = add nsw i32 %175, 1
  store i32 %176, i32* %1, align 4
  br label %162

177:                                              ; preds = %162
  store i32 1, i32* %1, align 4
  br label %178

178:                                              ; preds = %226, %177
  %179 = load i32, i32* %1, align 4
  %180 = load i32, i32* %3, align 4
  %181 = icmp slt i32 %179, %180
  br i1 %181, label %182, label %229

182:                                              ; preds = %178
  store i32 0, i32* %2, align 4
  br label %183

183:                                              ; preds = %222, %182
  %184 = load i32, i32* %2, align 4
  %185 = load i32, i32* %3, align 4
  %186 = load i32, i32* %1, align 4
  %187 = sub nsw i32 %185, %186
  %188 = icmp slt i32 %184, %187
  br i1 %188, label %189, label %225

189:                                              ; preds = %183
  %190 = load i32, i32* %2, align 4
  %191 = sext i32 %190 to i64
  %192 = getelementptr inbounds [102 x %struct.student], [102 x %struct.student]* @stu, i64 0, i64 %191
  %193 = getelementptr inbounds %struct.student, %struct.student* %192, i32 0, i32 6
  %194 = load i32, i32* %193, align 4
  %195 = load i32, i32* %2, align 4
  %196 = add nsw i32 %195, 1
  %197 = sext i32 %196 to i64
  %198 = getelementptr inbounds [102 x %struct.student], [102 x %struct.student]* @stu, i64 0, i64 %197
  %199 = getelementptr inbounds %struct.student, %struct.student* %198, i32 0, i32 6
  %200 = load i32, i32* %199, align 4
  %201 = icmp slt i32 %194, %200
  br i1 %201, label %202, label %221

202:                                              ; preds = %189
  %203 = load i32, i32* %2, align 4
  %204 = sext i32 %203 to i64
  %205 = getelementptr inbounds [102 x %struct.student], [102 x %struct.student]* @stu, i64 0, i64 %204
  %206 = bitcast %struct.student* %205 to i8*
  call void @llvm.memcpy.p0i8.p0i8.i64(i8* align 4 getelementptr inbounds (%struct.student, %struct.student* @temp, i32 0, i32 0, i32 0), i8* align 16 %206, i64 48, i1 false)
  %207 = load i32, i32* %2, align 4
  %208 = sext i32 %207 to i64
  %209 = getelementptr inbounds [102 x %struct.student], [102 x %struct.student]* @stu, i64 0, i64 %208
  %210 = load i32, i32* %2, align 4
  %211 = add nsw i32 %210, 1
  %212 = sext i32 %211 to i64
  %213 = getelementptr inbounds [102 x %struct.student], [102 x %struct.student]* @stu, i64 0, i64 %212
  %214 = bitcast %struct.student* %209 to i8*
  %215 = bitcast %struct.student* %213 to i8*
  call void @llvm.memcpy.p0i8.p0i8.i64(i8* align 16 %214, i8* align 16 %215, i64 48, i1 false)
  %216 = load i32, i32* %2, align 4
  %217 = add nsw i32 %216, 1
  %218 = sext i32 %217 to i64
  %219 = getelementptr inbounds [102 x %struct.student], [102 x %struct.student]* @stu, i64 0, i64 %218
  %220 = bitcast %struct.student* %219 to i8*
  call void @llvm.memcpy.p0i8.p0i8.i64(i8* align 16 %220, i8* align 4 getelementptr inbounds (%struct.student, %struct.student* @temp, i32 0, i32 0, i32 0), i64 48, i1 false)
  br label %221

221:                                              ; preds = %202, %189
  br label %222

222:                                              ; preds = %221
  %223 = load i32, i32* %2, align 4
  %224 = add nsw i32 %223, 1
  store i32 %224, i32* %2, align 4
  br label %183

225:                                              ; preds = %183
  br label %226

226:                                              ; preds = %225
  %227 = load i32, i32* %1, align 4
  %228 = add nsw i32 %227, 1
  store i32 %228, i32* %1, align 4
  br label %178

229:                                              ; preds = %178
  %230 = load i32, i32* getelementptr inbounds ([102 x %struct.student], [102 x %struct.student]* @stu, i64 0, i64 0, i32 6), align 4
  %231 = load i32, i32* %4, align 4
  %232 = call i32 (i8*, ...) @printf(i8* getelementptr inbounds ([10 x i8], [10 x i8]* @.str.2, i64 0, i64 0), i8* getelementptr inbounds ([102 x %struct.student], [102 x %struct.student]* @stu, i64 0, i64 0, i32 0, i64 0), i32 %230, i32 %231)
  ret void
}